; ModuleID = '46/2713.c'
source_filename = "46/2713.c"
target datalayout = "e-m:e-p270:32:32-p271:32:32-p272:64:64-i64:64-f80:128-n8:16:32:64-S128"
target triple = "x86_64-pc-linux-gnu"

@__const.main.dir = private unnamed_addr constant [4 x [2 x i32]] [[2 x i32] [i32 0, i32 1], [2 x i32] [i32 1, i32 0], [2 x i32] [i32 0, i32 -1], [2 x i32] [i32 -1, i32 0]], align 16
@.str = private unnamed_addr constant [5 x i8] c"%d%d\00", align 1
@.str.1 = private unnamed_addr constant [3 x i8] c"%d\00", align 1
@mat = common dso_local global [102 x [102 x i32]] zeroinitializer, align 16
@unvis = common dso_local global [102 x [102 x i32]] zeroinitializer, align 16
@.str.2 = private unnamed_addr constant [4 x i8] c"%d\0A\00", align 1

; Function Attrs: noinline nounwind uwtable
define dso_local i32 @main() #0 {
  %1 = alloca i32, align 4
  %2 = alloca i32, align 4
  %3 = alloca i32, align 4
  %4 = alloca i32, align 4
  %5 = alloca i32, align 4
  %6 = alloca i32, align 4
  %7 = alloca i32, align 4
  %8 = alloca [4 x [2 x i32]], align 16
  store i32 0, i32* %1, align 4
  %9 = bitcast [4 x [2 x i32]]* %8 to i8*
  call void @llvm.memcpy.p0i8.p0i8.i64(i8* align 16 %9, i8* align 16 bitcast ([4 x [2 x i32]]* @__const.main.dir to i8*), i64 32, i1 false)
  %10 = call i32 (i8*, ...) @__isoc99_scanf(i8* getelementptr inbounds ([5 x i8], [5 x i8]* @.str, i64 0, i64 0), i32* %3, i32* %4)
  store i32 0, i32* %5, align 4
  br label %11

11:                                               ; preds = %38, %0
  %12 = load i32, i32* %5, align 4
  %13 = load i32, i32* %3, align 4
  %14 = icmp slt i32 %12, %13
  br i1 %14, label %15, label %41

15:                                               ; preds = %11
  store i32 0, i32* %6, align 4
  br label %16

16:                                               ; preds = %34, %15
  %17 = load i32, i32* %6, align 4
  %18 = load i32, i32* %4, align 4
  %19 = icmp slt i32 %17, %18
  br i1 %19, label %20, label %37

20:                                               ; preds = %16
  %21 = load i32, i32* %5, align 4
  %22 = sext i32 %21 to i64
  %23 = getelementptr inbounds [102 x [102 x i32]], [102 x [102 x i32]]* @mat, i64 0, i64 %22
  %24 = load i32, i32* %6, align 4
  %25 = sext i32 %24 to i64
  %26 = getelementptr inbounds [102 x i32], [102 x i32]* %23, i64 0, i64 %25
  %27 = call i32 (i8*, ...) @__isoc99_scanf(i8* getelementptr inbounds ([3 x i8], [3 x i8]* @.str.1, i64 0, i64 0), i32* %26)
  %28 = load i32, i32* %5, align 4
  %29 = sext i32 %28 to i64
  %30 = getelementptr inbounds [102 x [102 x i32]], [102 x [102 x i32]]* @unvis, i64 0, i64 %29
  %31 = load i32, i32* %6, align 4
  %32 = sext i32 %31 to i64
  %33 = getelementptr inbounds [102 x i32], [102 x i32]* %30, i64 0, i64 %32
  store i32 1, i32* %33, align 4
  br label %34

34:                                               ; preds = %20
  %35 = load i32, i32* %6, align 4
  %36 = add nsw i32 %35, 1
  store i32 %36, i32* %6, align 4
  br label %16

37:                                               ; preds = %16
  br label %38

38:                                               ; preds = %37
  %39 = load i32, i32* %5, align 4
  %40 = add nsw i32 %39, 1
  store i32 %40, i32* %5, align 4
  br label %11

41:                                               ; preds = %11
  %42 = load i32, i32* %3, align 4
  %43 = load i32, i32* %4, align 4
  %44 = mul nsw i32 %42, %43
  store i32 %44, i32* %2, align 4
  store i32 0, i32* %3, align 4
  store i32 0, i32* %4, align 4
  store i32 0, i32* %7, align 4
  br label %45

45:                                               ; preds = %112, %41
  %46 = load i32, i32* %2, align 4
  %47 = icmp ne i32 %46, 0
  br i1 %47, label %48, label %115

48:                                               ; preds = %45
  %49 = load i32, i32* %3, align 4
  %50 = sext i32 %49 to i64
  %51 = getelementptr inbounds [102 x [102 x i32]], [102 x [102 x i32]]* @unvis, i64 0, i64 %50
  %52 = load i32, i32* %4, align 4
  %53 = sext i32 %52 to i64
  %54 = getelementptr inbounds [102 x i32], [102 x i32]* %51, i64 0, i64 %53
  store i32 0, i32* %54, align 4
  %55 = load i32, i32* %3, align 4
  %56 = sext i32 %55 to i64
  %57 = getelementptr inbounds [102 x [102 x i32]], [102 x [102 x i32]]* @mat, i64 0, i64 %56
  %58 = load i32, i32* %4, align 4
  %59 = sext i32 %58 to i64
  %60 = getelementptr inbounds [102 x i32], [102 x i32]* %57, i64 0, i64 %59
  %61 = load i32, i32* %60, align 4
  %62 = call i32 (i8*, ...) @printf(i8* getelementptr inbounds ([4 x i8], [4 x i8]* @.str.2, i64 0, i64 0), i32 %61)
  %63 = load i32, i32* %3, align 4
  %64 = load i32, i32* %7, align 4
  %65 = sext i32 %64 to i64
  %66 = getelementptr inbounds [4 x [2 x i32]], [4 x [2 x i32]]* %8, i64 0, i64 %65
  %67 = getelementptr inbounds [2 x i32], [2 x i32]* %66, i64 0, i64 0
  %68 = load i32, i32* %67, align 8
  %69 = add nsw i32 %63, %68
  store i32 %69, i32* %5, align 4
  %70 = load i32, i32* %4, align 4
  %71 = load i32, i32* %7, align 4
  %72 = sext i32 %71 to i64
  %73 = getelementptr inbounds [4 x [2 x i32]], [4 x [2 x i32]]* %8, i64 0, i64 %72
  %74 = getelementptr inbounds [2 x i32], [2 x i32]* %73, i64 0, i64 1
  %75 = load i32, i32* %74, align 4
  %76 = add nsw i32 %70, %75
  store i32 %76, i32* %6, align 4
  %77 = load i32, i32* %5, align 4
  %78 = icmp sge i32 %77, 0
  br i1 %78, label %79, label %94

79:                                               ; preds = %48
  %80 = load i32, i32* %6, align 4
  %81 = icmp sge i32 %80, 0
  br i1 %81, label %82, label %94

82:                                               ; preds = %79
  %83 = load i32, i32* %5, align 4
  %84 = sext i32 %83 to i64
  %85 = getelementptr inbounds [102 x [102 x i32]], [102 x [102 x i32]]* @unvis, i64 0, i64 %84
  %86 = load i32, i32* %6, align 4
  %87 = sext i32 %86 to i64
  %88 = getelementptr inbounds [102 x i32], [102 x i32]* %85, i64 0, i64 %87
  %89 = load i32, i32* %88, align 4
  %90 = icmp ne i32 %89, 0
  br i1 %90, label %91, label %94

91:                                               ; preds = %82
  %92 = load i32, i32* %5, align 4
  store i32 %92, i32* %3, align 4
  %93 = load i32, i32* %6, align 4
  store i32 %93, i32* %4, align 4
  br label %112

94:                                               ; preds = %82, %79, %48
  %95 = load i32, i32* %7, align 4
  %96 = add nsw i32 %95, 1
  %97 = srem i32 %96, 4
  store i32 %97, i32* %7, align 4
  %98 = load i32, i32* %3, align 4
  %99 = load i32, i32* %7, align 4
  %100 = sext i32 %99 to i64
  %101 = getelementptr inbounds [4 x [2 x i32]], [4 x [2 x i32]]* %8, i64 0, i64 %100
  %102 = getelementptr inbounds [2 x i32], [2 x i32]* %101, i64 0, i64 0
  %103 = load i32, i32* %102, align 8
  %104 = add nsw i32 %98, %103
  store i32 %104, i32* %3, align 4
  %105 = load i32, i32* %4, align 4
  %106 = load i32, i32* %7, align 4
  %107 = sext i32 %106 to i64
  %108 = getelementptr inbounds [4 x [2 x i32]], [4 x [2 x i32]]* %8, i64 0, i64 %107
  %109 = getelementptr inbounds [2 x i32], [2 x i32]* %108, i64 0, i64 1
  %110 = load i32, i32* %109, align 4
  %111 = add nsw i32 %105, %110
  store i32 %111, i32* %4, align 4
  br label %112

112:                                              ; preds = %94, %91
  %113 = load i32, i32* %2, align 4
  %114 = add nsw i32 %113, -1
  store i32 %114, i32* %2, align 4
  br label %45

115:                                              ; preds = %45
  ret i32 0
}

; Function Attrs: argmemonly nounwind willreturn
declare void @llvm.memcpy.p0i8.p0i8.i64(i8* noalias nocapture writeonly, i8* noalias nocapture readonly, i64, i1 immarg) #1

declare dso_local i32 @__isoc99_scanf(i8*, ...) #2

declare dso_local i32 @printf(i8*, ...) #2


!llvm.module.flags = !{!0}
!llvm.ident = !{!1}

!0 = !{i32 1, !"wchar_size", i32 4}
!1 = !{!"clang version 10.0.0-4ubuntu1 "}
